; Function Attrs: mustprogress uwtable
define void @_ZNK6icu_7721RuleBasedNumberFormat14getRuleSetNameEi(ptr dead_on_unwind noalias writable sret(%"class.icu_77::UnicodeString") align 8 %0, ptr noundef nonnull readonly align 8 captures(none) dereferenceable(456) %1, i32 noundef %2) unnamed_addr #3 align 2 personality ptr @__gxx_personality_v0 {
  %4 = alloca %"class.icu_77::ConstChar16Ptr", align 8
  %5 = getelementptr inbounds nuw i8, ptr %1, i64 368
  %6 = load ptr, ptr %5, align 8, !tbaa !91
  %.not = icmp eq ptr %6, null
  br i1 %.not, label %17, label %7

7:                                                ; preds = %3
  %8 = load ptr, ptr %6, align 8, !tbaa !3
  %9 = getelementptr inbounds nuw i8, ptr %8, i64 32
  %10 = load ptr, ptr %9, align 8
  %11 = tail call noundef ptr %10(ptr noundef nonnull align 8 dereferenceable(12) %6, i32 noundef %2)
  store ptr %11, ptr %4, align 8, !tbaa !100
  invoke void @_ZN6icu_7713UnicodeStringC1EaNS_14ConstChar16PtrEi(ptr noundef nonnull align 8 dereferenceable(64) %0, i8 noundef signext 1, ptr noundef nonnull %4, i32 noundef -1)
          to label %12 unwind label %14

12:                                               ; preds = %7
  %13 = load ptr, ptr %4, align 8, !tbaa !100
  call void asm sideeffect "", "rm,~{memory},~{dirflag},~{fpsr},~{flags}"(ptr %13) #21, !srcloc !102
  br label %38

14:                                               ; preds = %7
  %15 = landingpad { ptr, i32 }
          cleanup
  %16 = load ptr, ptr %4, align 8, !tbaa !100
  call void asm sideeffect "", "rm,~{memory},~{dirflag},~{fpsr},~{flags}"(ptr %16) #21, !srcloc !102
  br label %39

17:                                               ; preds = %3
  %18 = getelementptr inbounds nuw i8, ptr %1, i64 64
  %19 = load ptr, ptr %18, align 8, !tbaa !95
  %.not28 = icmp eq ptr %19, null
  br i1 %.not28, label %.thread, label %20

20:                                               ; preds = %17
  store ptr getelementptr inbounds nuw inrange(-16, 88) (i8, ptr @_ZTVN6icu_7713UnicodeStringE, i64 16), ptr %0, align 8, !tbaa !3
  %21 = getelementptr inbounds nuw i8, ptr %0, i64 8
  store i16 2, ptr %21, align 8, !tbaa !55
  %22 = load ptr, ptr %19, align 8, !tbaa !96
  %.not29.not41 = icmp eq ptr %22, null
  br i1 %.not29.not41, label %_ZNK6icu_779NFRuleSet7getNameERNS_13UnicodeStringE.exit, label %.lr.ph

.lr.ph:                                           ; preds = %20, %34
  %23 = phi ptr [ %36, %34 ], [ %22, %20 ]
  %.043 = phi i32 [ %.2.ph, %34 ], [ %2, %20 ]
  %.01842 = phi ptr [ %35, %34 ], [ %19, %20 ]
  %24 = getelementptr inbounds nuw i8, ptr %23, i64 161
  %25 = load i8, ptr %24, align 1, !tbaa !118
  %.not30 = icmp eq i8 %25, 0
  br i1 %.not30, label %34, label %26

26:                                               ; preds = %.lr.ph
  %27 = add nsw i32 %.043, -1
  %28 = icmp eq i32 %.043, 0
  br i1 %28, label %29, label %34

29:                                               ; preds = %26
  %30 = getelementptr inbounds nuw i8, ptr %23, i64 8
  %31 = invoke noundef nonnull align 8 dereferenceable(64) ptr @_ZN6icu_7713UnicodeString8copyFromERKS0_a(ptr noundef nonnull align 8 dereferenceable(64) %0, ptr noundef nonnull align 8 dereferenceable(64) %30, i8 noundef signext 0)
          to label %38 unwind label %32

32:                                               ; preds = %29
  %33 = landingpad { ptr, i32 }
          cleanup
  tail call void @_ZN6icu_7713UnicodeStringD1Ev(ptr noundef nonnull align 8 dereferenceable(64) %0) #21
  br label %39

34:                                               ; preds = %26, %.lr.ph
  %.2.ph = phi i32 [ %.043, %.lr.ph ], [ %27, %26 ]
  %35 = getelementptr inbounds nuw i8, ptr %.01842, i64 8
  %36 = load ptr, ptr %35, align 8, !tbaa !96
  %.not29.not = icmp eq ptr %36, null
  br i1 %.not29.not, label %_ZNK6icu_779NFRuleSet7getNameERNS_13UnicodeStringE.exit, label %.lr.ph, !llvm.loop !123

_ZNK6icu_779NFRuleSet7getNameERNS_13UnicodeStringE.exit: ; preds = %34, %20
  tail call void @_ZN6icu_7713UnicodeStringD1Ev(ptr noundef nonnull align 8 dereferenceable(64) %0) #21
  br label %.thread

.thread:                                          ; preds = %_ZNK6icu_779NFRuleSet7getNameERNS_13UnicodeStringE.exit, %17
  store ptr getelementptr inbounds nuw inrange(-16, 88) (i8, ptr @_ZTVN6icu_7713UnicodeStringE, i64 16), ptr %0, align 8, !tbaa !3
  %37 = getelementptr inbounds nuw i8, ptr %0, i64 8
  store i16 2, ptr %37, align 8, !tbaa !55
  br label %38

38:                                               ; preds = %29, %.thread, %12
  ret void

39:                                               ; preds = %32, %14
  %.pn = phi { ptr, i32 } [ %15, %14 ], [ %33, %32 ]
  resume { ptr, i32 } %.pn
}